; Function Attrs: nounwind uwtable
define dso_local range(i32 0, 2) i32 @quicklistReplaceAtIndex(ptr noundef %0, i64 noundef %1, ptr noundef %2, i64 noundef %3) local_unnamed_addr #1 {
  %5 = alloca %struct.quicklistEntry, align 8
  call void @llvm.lifetime.start.p0(i64 56, ptr nonnull %5) #23
  %6 = call ptr @quicklistGetIteratorEntryAtIdx(ptr noundef %0, i64 noundef %1, ptr noundef nonnull %5)
  %.not = icmp eq ptr %6, null
  br i1 %.not, label %21, label %7, !prof !24

7:                                                ; preds = %4
  call void @quicklistReplaceEntry(ptr noundef nonnull %6, ptr noundef nonnull %5, ptr noundef %2, i64 noundef %3)
  %8 = getelementptr inbounds nuw i8, ptr %6, i64 8
  %9 = load ptr, ptr %8, align 8, !tbaa !41
  %.not10.i = icmp eq ptr %9, null
  br i1 %.not10.i, label %quicklistReleaseIterator.exit, label %10

10:                                               ; preds = %7
  %11 = getelementptr inbounds nuw i8, ptr %9, i64 32
  %12 = load i32, ptr %11, align 8
  %13 = and i32 %12, 1048576
  %.not11.i = icmp eq i32 %13, 0
  br i1 %.not11.i, label %19, label %14

14:                                               ; preds = %10
  %15 = and i32 %12, 196608
  %16 = icmp eq i32 %15, 65536
  br i1 %16, label %17, label %quicklistReleaseIterator.exit

17:                                               ; preds = %14
  %18 = call i32 @__quicklistCompressNode(ptr noundef nonnull %9)
  br label %quicklistReleaseIterator.exit

19:                                               ; preds = %10
  %20 = load ptr, ptr %6, align 8, !tbaa !43
  call void @__quicklistCompress(ptr noundef %20, ptr noundef nonnull %9)
  br label %quicklistReleaseIterator.exit

quicklistReleaseIterator.exit:                    ; preds = %7, %14, %17, %19
  call void @zfree(ptr noundef nonnull %6) #23
  br label %21

21:                                               ; preds = %4, %quicklistReleaseIterator.exit
  %.0 = phi i32 [ 1, %quicklistReleaseIterator.exit ], [ 0, %4 ]
  call void @llvm.lifetime.end.p0(i64 56, ptr nonnull %5) #23
  ret i32 %.0
}